; Function Attrs: nounwind uwtable
define void @Sfm_NtkWindowTest(ptr noundef %0, i32 noundef %1) local_unnamed_addr #2 {
  %3 = getelementptr inbounds nuw i8, ptr %0, i64 8
  %4 = load i32, ptr %3, align 8, !tbaa !3
  %5 = getelementptr inbounds nuw i8, ptr %0, i64 12
  %6 = getelementptr inbounds nuw i8, ptr %0, i64 20
  %7 = load i32, ptr %5, align 4, !tbaa !38
  %8 = add nsw i32 %7, %4
  %9 = load i32, ptr %6, align 4, !tbaa !35
  %10 = icmp slt i32 %8, %9
  br i1 %10, label %.lr.ph, label %._crit_edge

.lr.ph:                                           ; preds = %2, %.lr.ph
  %.06 = phi i32 [ %12, %.lr.ph ], [ %4, %2 ]
  %11 = tail call i32 @Sfm_NtkCreateWindow(ptr noundef nonnull %0, i32 noundef %.06, i32 noundef 1)
  %12 = add nsw i32 %.06, 1
  %13 = load i32, ptr %5, align 4, !tbaa !38
  %14 = add nsw i32 %13, %12
  %15 = load i32, ptr %6, align 4, !tbaa !35
  %16 = icmp slt i32 %14, %15
  br i1 %16, label %.lr.ph, label %._crit_edge, !llvm.loop !79

._crit_edge:                                      ; preds = %.lr.ph, %2
  ret void
}